target datalayout = "e-m:e-p270:32:32-p271:32:32-p272:64:64-i64:64-i128:128-f80:128-n8:16:32:64-S128"
target triple = "x86_64-pc-linux-gnu"

%class.CrowdToolState = type <{ %struct.SampleToolState, ptr, ptr, ptr, [3 x float], i32, %struct.dtCrowdAgentDebugInfo, ptr, [128 x %"struct.CrowdToolState::AgentTrail"], %class.ValueHistory, %class.ValueHistory, %struct.CrowdToolParams, i8, [7 x i8] }>
%struct.SampleToolState = type { ptr }
%struct.dtCrowdAgentDebugInfo = type { i32, [3 x float], [3 x float], ptr }
%"struct.CrowdToolState::AgentTrail" = type { [192 x float], i32 }
%class.ValueHistory = type { [256 x float], i32 }
%struct.CrowdToolParams = type { i8, i8, i8, i8, i8, i8, i8, i8, i8, i8, i8, i8, i8, i8, i8, i8, i8, i8, float, i8, float }
%struct.dtObstacleAvoidanceParams = type { float, float, float, float, float, float, i8, i8, i8, i8 }
%class.dtCrowd = type { i32, ptr, ptr, ptr, %class.dtPathQueue, [8 x %struct.dtObstacleAvoidanceParams], ptr, ptr, ptr, i32, [3 x float], [16 x %class.dtQueryFilter], float, i32, ptr }
%class.dtPathQueue = type { [8 x %"struct.dtPathQueue::PathQuery"], i32, i32, i32, ptr }
%"struct.dtPathQueue::PathQuery" = type { i32, [3 x float], [3 x float], i32, i32, ptr, i32, i32, i32, ptr }
%class.dtQueryFilter = type { [64 x float], i16, i16 }
%struct.dtCrowdAgent = type { i8, i8, i8, %class.dtPathCorridor, %class.dtLocalBoundary, float, [6 x %struct.dtCrowdNeighbour], i32, float, [3 x float], [3 x float], [3 x float], [3 x float], [3 x float], %struct.dtCrowdAgentParams, [12 x float], [4 x i8], [4 x i32], i32, i8, i32, [3 x float], i32, i8, float }
%class.dtPathCorridor = type { [3 x float], [3 x float], ptr, i32, i32 }
%class.dtLocalBoundary = type { [3 x float], [8 x %"struct.dtLocalBoundary::Segment"], i32, [16 x i32], i32 }
%"struct.dtLocalBoundary::Segment" = type { [6 x float], float }
%struct.dtCrowdNeighbour = type { i32, float }
%struct.dtCrowdAgentParams = type { float, float, float, float, float, float, float, i8, i8, i8, ptr }

; Function Attrs: mustprogress nounwind uwtable
define linkonce_odr dso_local void @_ZN12ValueHistory9addSampleEf(ptr noundef nonnull align 4 dereferenceable(1028) %0, float noundef %1) #1 comdat align 2 {
  %3 = alloca ptr, align 8
  %4 = alloca float, align 4
  store ptr %0, ptr %3, align 8
  store float %1, ptr %4, align 4
  %5 = load ptr, ptr %3, align 8
  %6 = getelementptr inbounds %class.ValueHistory, ptr %5, i32 0, i32 1
  %7 = load i32, ptr %6, align 4
  %8 = add nsw i32 %7, 256
  %9 = sub nsw i32 %8, 1
  %10 = srem i32 %9, 256
  %11 = getelementptr inbounds %class.ValueHistory, ptr %5, i32 0, i32 1
  store i32 %10, ptr %11, align 4
  %12 = load float, ptr %4, align 4
  %13 = getelementptr inbounds %class.ValueHistory, ptr %5, i32 0, i32 0
  %14 = getelementptr inbounds %class.ValueHistory, ptr %5, i32 0, i32 1
  %15 = load i32, ptr %14, align 4
  %16 = sext i32 %15 to i64
  %17 = getelementptr inbounds [256 x float], ptr %13, i64 0, i64 %16
  store float %12, ptr %17, align 4
  ret void
}

; Function Attrs: mustprogress nounwind uwtable
define linkonce_odr dso_local noundef i32 @_ZNK7dtCrowd22getVelocitySampleCountEv(ptr noundef nonnull align 8 dereferenceable(5072) %0) #1 comdat align 2 {
  %2 = alloca ptr, align 8
  store ptr %0, ptr %2, align 8
  %3 = load ptr, ptr %2, align 8
  %4 = getelementptr inbounds %class.dtCrowd, ptr %3, i32 0, i32 13
  %5 = load i32, ptr %4, align 4
  ret i32 %5
}

; Function Attrs: mustprogress nounwind uwtable
define linkonce_odr dso_local void @_Z7dtVcopyPfPKf(ptr noundef %0, ptr noundef %1) #1 comdat {
  %3 = alloca ptr, align 8
  %4 = alloca ptr, align 8
  store ptr %0, ptr %3, align 8
  store ptr %1, ptr %4, align 8
  %5 = load ptr, ptr %4, align 8
  %6 = getelementptr inbounds float, ptr %5, i64 0
  %7 = load float, ptr %6, align 4
  %8 = load ptr, ptr %3, align 8
  %9 = getelementptr inbounds float, ptr %8, i64 0
  store float %7, ptr %9, align 4
  %10 = load ptr, ptr %4, align 8
  %11 = getelementptr inbounds float, ptr %10, i64 1
  %12 = load float, ptr %11, align 4
  %13 = load ptr, ptr %3, align 8
  %14 = getelementptr inbounds float, ptr %13, i64 1
  store float %12, ptr %14, align 4
  %15 = load ptr, ptr %4, align 8
  %16 = getelementptr inbounds float, ptr %15, i64 2
  %17 = load float, ptr %16, align 4
  %18 = load ptr, ptr %3, align 8
  %19 = getelementptr inbounds float, ptr %18, i64 2
  store float %17, ptr %19, align 4
  ret void
}

; Function Attrs: mustprogress uwtable
define dso_local void @_ZN14CrowdToolState10updateTickEf(ptr noundef nonnull align 8 dereferenceable(101001) %0, float noundef %1) #0 align 2 {
  %3 = alloca ptr, align 8
  %4 = alloca float, align 4
  %5 = alloca ptr, align 8
  %6 = alloca ptr, align 8
  %7 = alloca i64, align 8
  %8 = alloca i64, align 8
  %9 = alloca i32, align 4
  %10 = alloca ptr, align 8
  %11 = alloca ptr, align 8
  store ptr %0, ptr %3, align 8
  store float %1, ptr %4, align 4
  %12 = load ptr, ptr %3, align 8
  %13 = getelementptr inbounds %class.CrowdToolState, ptr %12, i32 0, i32 1
  %14 = load ptr, ptr %13, align 8
  %15 = icmp ne ptr %14, null
  br i1 %15, label %17, label %16

16:                                               ; preds = %2
  br label %97

17:                                               ; preds = %2
  %18 = getelementptr inbounds %class.CrowdToolState, ptr %12, i32 0, i32 1
  %19 = load ptr, ptr %18, align 8
  %20 = load ptr, ptr %19, align 8
  %21 = getelementptr inbounds ptr, ptr %20, i64 15
  %22 = load ptr, ptr %21, align 8
  %23 = call noundef ptr %22(ptr noundef nonnull align 8 dereferenceable(200) %19)
  store ptr %23, ptr %5, align 8
  %24 = getelementptr inbounds %class.CrowdToolState, ptr %12, i32 0, i32 1
  %25 = load ptr, ptr %24, align 8
  %26 = load ptr, ptr %25, align 8
  %27 = getelementptr inbounds ptr, ptr %26, i64 17
  %28 = load ptr, ptr %27, align 8
  %29 = call noundef ptr %28(ptr noundef nonnull align 8 dereferenceable(200) %25)
  store ptr %29, ptr %6, align 8
  %30 = load ptr, ptr %5, align 8
  %31 = icmp ne ptr %30, null
  br i1 %31, label %32, label %35

32:                                               ; preds = %17
  %33 = load ptr, ptr %6, align 8
  %34 = icmp ne ptr %33, null
  br i1 %34, label %36, label %35

35:                                               ; preds = %32, %17
  br label %97

36:                                               ; preds = %32
  %37 = call noundef i64 @_Z11getPerfTimev()
  store i64 %37, ptr %7, align 8
  %38 = load ptr, ptr %6, align 8
  %39 = load float, ptr %4, align 4
  %40 = getelementptr inbounds %class.CrowdToolState, ptr %12, i32 0, i32 6
  call void @_ZN7dtCrowd6updateEfP21dtCrowdAgentDebugInfo(ptr noundef nonnull align 8 dereferenceable(5072) %38, float noundef %39, ptr noundef %40)
  %41 = call noundef i64 @_Z11getPerfTimev()
  store i64 %41, ptr %8, align 8
  store i32 0, ptr %9, align 4
  br label %42

42:                                               ; preds = %79, %36
  %43 = load i32, ptr %9, align 4
  %44 = load ptr, ptr %6, align 8
  %45 = call noundef i32 @_ZNK7dtCrowd13getAgentCountEv(ptr noundef nonnull align 8 dereferenceable(5072) %44)
  %46 = icmp slt i32 %43, %45
  br i1 %46, label %47, label %82

47:                                               ; preds = %42
  %48 = load ptr, ptr %6, align 8
  %49 = load i32, ptr %9, align 4
  %50 = call noundef ptr @_ZN7dtCrowd8getAgentEi(ptr noundef nonnull align 8 dereferenceable(5072) %48, i32 noundef %49)
  store ptr %50, ptr %10, align 8
  %51 = getelementptr inbounds %class.CrowdToolState, ptr %12, i32 0, i32 8
  %52 = load i32, ptr %9, align 4
  %53 = sext i32 %52 to i64
  %54 = getelementptr inbounds [128 x %"struct.CrowdToolState::AgentTrail"], ptr %51, i64 0, i64 %53
  store ptr %54, ptr %11, align 8
  %55 = load ptr, ptr %10, align 8
  %56 = getelementptr inbounds %struct.dtCrowdAgent, ptr %55, i32 0, i32 0
  %57 = load i8, ptr %56, align 8
  %58 = trunc i8 %57 to i1
  br i1 %58, label %60, label %59

59:                                               ; preds = %47
  br label %79

60:                                               ; preds = %47
  %61 = load ptr, ptr %11, align 8
  %62 = getelementptr inbounds %"struct.CrowdToolState::AgentTrail", ptr %61, i32 0, i32 1
  %63 = load i32, ptr %62, align 4
  %64 = add nsw i32 %63, 1
  %65 = srem i32 %64, 64
  %66 = load ptr, ptr %11, align 8
  %67 = getelementptr inbounds %"struct.CrowdToolState::AgentTrail", ptr %66, i32 0, i32 1
  store i32 %65, ptr %67, align 4
  %68 = load ptr, ptr %11, align 8
  %69 = getelementptr inbounds %"struct.CrowdToolState::AgentTrail", ptr %68, i32 0, i32 0
  %70 = load ptr, ptr %11, align 8
  %71 = getelementptr inbounds %"struct.CrowdToolState::AgentTrail", ptr %70, i32 0, i32 1
  %72 = load i32, ptr %71, align 4
  %73 = mul nsw i32 %72, 3
  %74 = sext i32 %73 to i64
  %75 = getelementptr inbounds [192 x float], ptr %69, i64 0, i64 %74
  %76 = load ptr, ptr %10, align 8
  %77 = getelementptr inbounds %struct.dtCrowdAgent, ptr %76, i32 0, i32 9
  %78 = getelementptr inbounds [3 x float], ptr %77, i64 0, i64 0
  call void @_Z7dtVcopyPfPKf(ptr noundef %75, ptr noundef %78)
  br label %79

79:                                               ; preds = %60, %59
  %80 = load i32, ptr %9, align 4
  %81 = add nsw i32 %80, 1
  store i32 %81, ptr %9, align 4
  br label %42, !llvm.loop !27

82:                                               ; preds = %42
  %83 = getelementptr inbounds %class.CrowdToolState, ptr %12, i32 0, i32 6
  %84 = getelementptr inbounds %struct.dtCrowdAgentDebugInfo, ptr %83, i32 0, i32 3
  %85 = load ptr, ptr %84, align 8
  call void @_ZN28dtObstacleAvoidanceDebugData16normalizeSamplesEv(ptr noundef nonnull align 8 dereferenceable(64) %85)
  %86 = getelementptr inbounds %class.CrowdToolState, ptr %12, i32 0, i32 10
  %87 = load ptr, ptr %6, align 8
  %88 = call noundef i32 @_ZNK7dtCrowd22getVelocitySampleCountEv(ptr noundef nonnull align 8 dereferenceable(5072) %87)
  %89 = sitofp i32 %88 to float
  call void @_ZN12ValueHistory9addSampleEf(ptr noundef nonnull align 4 dereferenceable(1028) %86, float noundef %89)
  %90 = getelementptr inbounds %class.CrowdToolState, ptr %12, i32 0, i32 9
  %91 = load i64, ptr %8, align 8
  %92 = load i64, ptr %7, align 8
  %93 = sub nsw i64 %91, %92
  %94 = call noundef i32 @_Z15getPerfTimeUsecl(i64 noundef %93)
  %95 = sitofp i32 %94 to float
  %96 = fdiv float %95, 1.000000e+03
  call void @_ZN12ValueHistory9addSampleEf(ptr noundef nonnull align 4 dereferenceable(1028) %90, float noundef %96)
  br label %97

97:                                               ; preds = %82, %35, %16
  ret void
}