; Function Attrs: mustprogress uwtable
define dso_local void @_ZN14CrowdToolState10updateTickEf(ptr noundef nonnull align 8 dereferenceable(101001) %0, float noundef %1) local_unnamed_addr #0 align 2 {
  %3 = getelementptr inbounds i8, ptr %0, i64 8
  %4 = load ptr, ptr %3, align 8
  %.not = icmp eq ptr %4, null
  br i1 %.not, label %73, label %5

5:                                                ; preds = %2
  %6 = load ptr, ptr %4, align 8
  %7 = getelementptr inbounds i8, ptr %6, i64 120
  %8 = load ptr, ptr %7, align 8
  %9 = tail call noundef ptr %8(ptr noundef nonnull align 8 dereferenceable(200) %4)
  %10 = load ptr, ptr %3, align 8
  %11 = load ptr, ptr %10, align 8
  %12 = getelementptr inbounds i8, ptr %11, i64 136
  %13 = load ptr, ptr %12, align 8
  %14 = tail call noundef ptr %13(ptr noundef nonnull align 8 dereferenceable(200) %10)
  %15 = icmp ne ptr %9, null
  %16 = icmp ne ptr %14, null
  %or.cond = and i1 %15, %16
  br i1 %or.cond, label %17, label %73

17:                                               ; preds = %5
  %18 = tail call noundef i64 @_Z11getPerfTimev()
  %19 = getelementptr inbounds i8, ptr %0, i64 48
  tail call void @_ZN7dtCrowd6updateEfP21dtCrowdAgentDebugInfo(ptr noundef nonnull align 8 dereferenceable(5072) %14, float noundef %1, ptr noundef nonnull %19)
  %20 = tail call noundef i64 @_Z11getPerfTimev()
  %21 = tail call noundef i32 @_ZNK7dtCrowd13getAgentCountEv(ptr noundef nonnull align 8 dereferenceable(5072) %14)
  %22 = icmp sgt i32 %21, 0
  br i1 %22, label %.lr.ph, label %._crit_edge

.lr.ph:                                           ; preds = %17
  %23 = getelementptr inbounds i8, ptr %0, i64 96
  br label %24

24:                                               ; preds = %.lr.ph, %46
  %indvars.iv = phi i64 [ 0, %.lr.ph ], [ %indvars.iv.next, %46 ]
  %25 = trunc i64 %indvars.iv to i32
  %26 = tail call noundef ptr @_ZN7dtCrowd8getAgentEi(ptr noundef nonnull align 8 dereferenceable(5072) %14, i32 noundef %25)
  %27 = load i8, ptr %26, align 8
  %28 = and i8 %27, 1
  %.not22 = icmp eq i8 %28, 0
  br i1 %.not22, label %46, label %29

29:                                               ; preds = %24
  %30 = getelementptr inbounds [128 x %"struct.CrowdToolState::AgentTrail"], ptr %23, i64 0, i64 %indvars.iv
  %31 = getelementptr inbounds i8, ptr %30, i64 768
  %32 = load i32, ptr %31, align 4
  %33 = add nsw i32 %32, 1
  %34 = srem i32 %33, 64
  store i32 %34, ptr %31, align 4
  %35 = mul nsw i32 %34, 3
  %36 = sext i32 %35 to i64
  %37 = getelementptr inbounds [192 x float], ptr %30, i64 0, i64 %36
  %38 = getelementptr inbounds i8, ptr %26, i64 416
  %39 = load float, ptr %38, align 4
  store float %39, ptr %37, align 4
  %40 = getelementptr inbounds i8, ptr %26, i64 420
  %41 = load float, ptr %40, align 4
  %42 = getelementptr inbounds i8, ptr %37, i64 4
  store float %41, ptr %42, align 4
  %43 = getelementptr inbounds i8, ptr %26, i64 424
  %44 = load float, ptr %43, align 4
  %45 = getelementptr inbounds i8, ptr %37, i64 8
  store float %44, ptr %45, align 4
  br label %46

46:                                               ; preds = %24, %29
  %indvars.iv.next = add nuw nsw i64 %indvars.iv, 1
  %47 = tail call noundef i32 @_ZNK7dtCrowd13getAgentCountEv(ptr noundef nonnull align 8 dereferenceable(5072) %14)
  %48 = sext i32 %47 to i64
  %49 = icmp slt i64 %indvars.iv.next, %48
  br i1 %49, label %24, label %._crit_edge, !llvm.loop !28

._crit_edge:                                      ; preds = %46, %17
  %50 = getelementptr inbounds i8, ptr %0, i64 80
  %51 = load ptr, ptr %50, align 8
  tail call void @_ZN28dtObstacleAvoidanceDebugData16normalizeSamplesEv(ptr noundef nonnull align 8 dereferenceable(64) %51)
  %52 = getelementptr inbounds i8, ptr %0, i64 99940
  %53 = getelementptr inbounds i8, ptr %14, i64 5060
  %54 = load i32, ptr %53, align 4
  %55 = sitofp i32 %54 to float
  %56 = getelementptr inbounds i8, ptr %0, i64 100964
  %57 = load i32, ptr %56, align 4
  %58 = add nsw i32 %57, 255
  %59 = srem i32 %58, 256
  store i32 %59, ptr %56, align 4
  %60 = sext i32 %59 to i64
  %61 = getelementptr inbounds [256 x float], ptr %52, i64 0, i64 %60
  store float %55, ptr %61, align 4
  %62 = getelementptr inbounds i8, ptr %0, i64 98912
  %63 = sub nsw i64 %20, %18
  %64 = tail call noundef i32 @_Z15getPerfTimeUsecl(i64 noundef %63)
  %65 = sitofp i32 %64 to float
  %66 = fdiv float %65, 1.000000e+03
  %67 = getelementptr inbounds i8, ptr %0, i64 99936
  %68 = load i32, ptr %67, align 8
  %69 = add nsw i32 %68, 255
  %70 = srem i32 %69, 256
  store i32 %70, ptr %67, align 8
  %71 = sext i32 %70 to i64
  %72 = getelementptr inbounds [256 x float], ptr %62, i64 0, i64 %71
  store float %66, ptr %72, align 4
  br label %73

73:                                               ; preds = %5, %2, %._crit_edge
  ret void
}